; Function Attrs: mustprogress nofree nounwind willreturn memory(write, argmem: readwrite) uwtable
define noundef double @_ZNK8QuantLib16G2ForwardProcess4My_TEddd(ptr nocapture noundef nonnull readonly align 8 dereferenceable(224) %this, double noundef %s, double noundef %t, double noundef %T) local_unnamed_addr #15 align 2 {
entry:
  %eta_ = getelementptr inbounds nuw i8, ptr %this, i64 176
  %0 = load double, ptr %eta_, align 8, !tbaa !90
  %mul = fmul double %0, %0
  %b_ = getelementptr inbounds nuw i8, ptr %this, i64 168
  %1 = load double, ptr %b_, align 8, !tbaa !89
  %mul4 = fmul double %1, %1
  %div = fdiv double %mul, %mul4
  %rho_ = getelementptr inbounds nuw i8, ptr %this, i64 184
  %2 = load double, ptr %rho_, align 8, !tbaa !91
  %sigma_ = getelementptr inbounds nuw i8, ptr %this, i64 160
  %3 = load double, ptr %sigma_, align 8, !tbaa !88
  %mul5 = fmul double %2, %3
  %mul7 = fmul double %0, %mul5
  %a_ = getelementptr inbounds nuw i8, ptr %this, i64 152
  %4 = load double, ptr %a_, align 8, !tbaa !85
  %mul9 = fmul double %1, %4
  %div10 = fdiv double %mul7, %mul9
  %add = fadd double %div, %div10
  %fneg = fneg double %1
  %sub = fsub double %t, %s
  %mul12 = fmul double %sub, %fneg
  %call = tail call double @exp(double noundef %mul12) #27, !tbaa !70
  %sub13 = fsub double 1.000000e+00, %call
  %mul14 = fmul double %sub13, %add
  %5 = fneg double %0
  %fneg18 = fmul double %0, %5
  %mul20 = fmul double %1, 2.000000e+00
  %mul22 = fmul double %1, %mul20
  %div23 = fdiv double %fneg18, %mul22
  %sub26 = fsub double %T, %t
  %mul27 = fmul double %sub26, %fneg
  %call28 = tail call double @exp(double noundef %mul27) #27, !tbaa !70
  %add31 = fadd double %t, %T
  %6 = tail call double @llvm.fmuladd.f64(double %s, double -2.000000e+00, double %add31)
  %mul33 = fmul double %6, %fneg
  %call34 = tail call double @exp(double noundef %mul33) #27, !tbaa !70
  %sub35 = fsub double %call28, %call34
  %7 = tail call double @llvm.fmuladd.f64(double %div23, double %sub35, double %mul14)
  %fneg42 = fmul double %mul5, %5
  %add46 = fadd double %1, %4
  %mul47 = fmul double %4, %add46
  %div48 = fdiv double %fneg42, %mul47
  %fneg50 = fneg double %4
  %mul52 = fmul double %sub26, %fneg50
  %call53 = tail call double @exp(double noundef %mul52) #27, !tbaa !70
  %8 = fneg double %t
  %neg = fmul double %1, %8
  %9 = tail call double @llvm.fmuladd.f64(double %fneg50, double %T, double %neg)
  %10 = tail call double @llvm.fmuladd.f64(double %add46, double %s, double %9)
  %call63 = tail call double @exp(double noundef %10) #27, !tbaa !70
  %sub64 = fsub double %call53, %call63
  %11 = tail call double @llvm.fmuladd.f64(double %div48, double %sub64, double %7)
  ret double %11
}